target datalayout = "e-m:e-p270:32:32-p271:32:32-p272:64:64-i64:64-i128:128-f80:128-n8:16:32:64-S128"
target triple = "x86_64-pc-linux-gnu"

%struct.evp_pkey_st = type { i32, i32, %union.anon.1, ptr }
%union.anon.1 = type { ptr }
%struct.cert_st = type { ptr, ptr, ptr, ptr, i32, i32, ptr, ptr, ptr, i64, ptr, i64, ptr, ptr, ptr }

@.str = private unnamed_addr constant [117 x i8] c"generated/home/dtcxzyw/WorkSpace/Projects/compilers/llvm-opt-benchmark/bench/libquic/libquic/boringssl/ssl/ssl_rsa.c\00", align 1

; Function Attrs: nounwind uwtable
define internal i32 @is_key_type_supported(i32 noundef %0) #0 {
  %2 = alloca i32, align 4
  store i32 %0, ptr %2, align 4, !tbaa !55
  %3 = load i32, ptr %2, align 4, !tbaa !55
  %4 = icmp eq i32 %3, 6
  br i1 %4, label %8, label %5

5:                                                ; preds = %1
  %6 = load i32, ptr %2, align 4, !tbaa !55
  %7 = icmp eq i32 %6, 408
  br label %8

8:                                                ; preds = %5, %1
  %9 = phi i1 [ true, %1 ], [ %7, %5 ]
  %10 = zext i1 %9 to i32
  ret i32 %10
}

; Function Attrs: nounwind uwtable
define internal i32 @ssl_set_pkey(ptr noundef %0, ptr noundef %1) #0 {
  %3 = alloca i32, align 4
  %4 = alloca ptr, align 8
  %5 = alloca ptr, align 8
  store ptr %0, ptr %4, align 8, !tbaa !39
  store ptr %1, ptr %5, align 8, !tbaa !40
  %6 = load ptr, ptr %5, align 8, !tbaa !40
  %7 = getelementptr inbounds nuw %struct.evp_pkey_st, ptr %6, i32 0, i32 1
  %8 = load i32, ptr %7, align 4, !tbaa !41
  %9 = call i32 @is_key_type_supported(i32 noundef %8)
  %10 = icmp ne i32 %9, 0
  br i1 %10, label %12, label %11

11:                                               ; preds = %2
  call void @ERR_put_error(i32 noundef 16, i32 noundef 0, i32 noundef 228, ptr noundef @.str, i32 noundef 129)
  store i32 0, ptr %3, align 4
  br label %43

12:                                               ; preds = %2
  %13 = load ptr, ptr %4, align 8, !tbaa !39
  %14 = getelementptr inbounds nuw %struct.cert_st, ptr %13, i32 0, i32 0
  %15 = load ptr, ptr %14, align 8, !tbaa !52
  %16 = icmp ne ptr %15, null
  br i1 %16, label %17, label %35

17:                                               ; preds = %12
  %18 = load ptr, ptr %5, align 8, !tbaa !40
  %19 = call i32 @EVP_PKEY_is_opaque(ptr noundef %18)
  %20 = icmp ne i32 %19, 0
  br i1 %20, label %34, label %21

21:                                               ; preds = %17
  %22 = load ptr, ptr %4, align 8, !tbaa !39
  %23 = getelementptr inbounds nuw %struct.cert_st, ptr %22, i32 0, i32 0
  %24 = load ptr, ptr %23, align 8, !tbaa !52
  %25 = load ptr, ptr %5, align 8, !tbaa !40
  %26 = call i32 @X509_check_private_key(ptr noundef %24, ptr noundef %25)
  %27 = icmp ne i32 %26, 0
  br i1 %27, label %34, label %28

28:                                               ; preds = %21
  %29 = load ptr, ptr %4, align 8, !tbaa !39
  %30 = getelementptr inbounds nuw %struct.cert_st, ptr %29, i32 0, i32 0
  %31 = load ptr, ptr %30, align 8, !tbaa !52
  call void @X509_free(ptr noundef %31)
  %32 = load ptr, ptr %4, align 8, !tbaa !39
  %33 = getelementptr inbounds nuw %struct.cert_st, ptr %32, i32 0, i32 0
  store ptr null, ptr %33, align 8, !tbaa !52
  store i32 0, ptr %3, align 4
  br label %43

34:                                               ; preds = %21, %17
  br label %35

35:                                               ; preds = %34, %12
  %36 = load ptr, ptr %4, align 8, !tbaa !39
  %37 = getelementptr inbounds nuw %struct.cert_st, ptr %36, i32 0, i32 1
  %38 = load ptr, ptr %37, align 8, !tbaa !44
  call void @EVP_PKEY_free(ptr noundef %38)
  %39 = load ptr, ptr %5, align 8, !tbaa !40
  %40 = call ptr @EVP_PKEY_up_ref(ptr noundef %39)
  %41 = load ptr, ptr %4, align 8, !tbaa !39
  %42 = getelementptr inbounds nuw %struct.cert_st, ptr %41, i32 0, i32 1
  store ptr %40, ptr %42, align 8, !tbaa !44
  store i32 1, ptr %3, align 4
  br label %43

43:                                               ; preds = %35, %28, %11
  %44 = load i32, ptr %3, align 4
  ret i32 %44
}