; Function Attrs: nounwind uwtable
define internal fastcc range(i32 0, 2) i32 @ssl_set_pkey(ptr noundef captures(none) %0, ptr noundef nonnull %1) unnamed_addr #0 {
  %3 = getelementptr inbounds nuw i8, ptr %1, i64 4
  %4 = load i32, ptr %3, align 4, !tbaa !35
  switch i32 %4, label %5 [
    i32 408, label %6
    i32 6, label %6
  ]

5:                                                ; preds = %2
  tail call void @ERR_put_error(i32 noundef 16, i32 noundef 0, i32 noundef 228, ptr noundef nonnull @.str, i32 noundef 129) #6
  br label %19

6:                                                ; preds = %2, %2
  %7 = load ptr, ptr %0, align 8, !tbaa !47
  %.not10 = icmp eq ptr %7, null
  br i1 %.not10, label %15, label %8

8:                                                ; preds = %6
  %9 = tail call i32 @EVP_PKEY_is_opaque(ptr noundef nonnull %1) #6
  %.not11 = icmp eq i32 %9, 0
  br i1 %.not11, label %10, label %15

10:                                               ; preds = %8
  %11 = load ptr, ptr %0, align 8, !tbaa !47
  %12 = tail call i32 @X509_check_private_key(ptr noundef %11, ptr noundef nonnull %1) #6
  %.not12 = icmp eq i32 %12, 0
  br i1 %.not12, label %13, label %15

13:                                               ; preds = %10
  %14 = load ptr, ptr %0, align 8, !tbaa !47
  tail call void @X509_free(ptr noundef %14) #6
  store ptr null, ptr %0, align 8, !tbaa !47
  br label %19

15:                                               ; preds = %8, %10, %6
  %16 = getelementptr inbounds nuw i8, ptr %0, i64 8
  %17 = load ptr, ptr %16, align 8, !tbaa !38
  tail call void @EVP_PKEY_free(ptr noundef %17) #6
  %18 = tail call ptr @EVP_PKEY_up_ref(ptr noundef nonnull %1) #6
  store ptr %18, ptr %16, align 8, !tbaa !38
  br label %19

19:                                               ; preds = %15, %13, %5
  %.0 = phi i32 [ 1, %15 ], [ 0, %13 ], [ 0, %5 ]
  ret i32 %.0
}